target datalayout = "e-m:e-p270:32:32-p271:32:32-p272:64:64-i64:64-i128:128-f80:128-n8:16:32:64-S128"
target triple = "x86_64-pc-linux-gnu"

%struct.wpacket_st = type { ptr, ptr, i64, i64, i64, ptr, i8 }
%struct.ml_dsa_key_st = type { ptr, ptr, ptr, ptr, [32 x i8], [64 x i8], [32 x i8], ptr, ptr, ptr, i32, i32, %struct.vector_st, %struct.vector_st, %struct.vector_st, %struct.vector_st }
%struct.vector_st = type { ptr, i64 }
%struct.ml_dsa_params_st = type { ptr, i32, i32, i32, i32, i32, i64, i64, i32, i32, i32, i32, i64, i64, i64 }
%struct.poly_st = type { [256 x i32] }

@.str = private unnamed_addr constant [43 x i8] c"../openssl/crypto/ml_dsa/ml_dsa_encoders.c\00", align 1

; Function Attrs: nounwind uwtable
define internal i32 @poly_encode_10_bits(ptr noundef %0, ptr noundef %1) #0 {
  %3 = alloca i32, align 4
  %4 = alloca ptr, align 8
  %5 = alloca ptr, align 8
  %6 = alloca ptr, align 8
  %7 = alloca ptr, align 8
  %8 = alloca ptr, align 8
  %9 = alloca i32, align 4
  %10 = alloca i32, align 4
  %11 = alloca i32, align 4
  %12 = alloca i32, align 4
  %13 = alloca i32, align 4
  store ptr %0, ptr %4, align 8, !tbaa !20
  store ptr %1, ptr %5, align 8, !tbaa !29
  call void @llvm.lifetime.start.p0(i64 8, ptr %6) #7
  call void @llvm.lifetime.start.p0(i64 8, ptr %7) #7
  %14 = load ptr, ptr %4, align 8, !tbaa !20
  %15 = getelementptr inbounds nuw %struct.poly_st, ptr %14, i32 0, i32 0
  %16 = getelementptr inbounds [256 x i32], ptr %15, i64 0, i64 0
  store ptr %16, ptr %7, align 8, !tbaa !31
  call void @llvm.lifetime.start.p0(i64 8, ptr %8) #7
  %17 = load ptr, ptr %7, align 8, !tbaa !31
  %18 = getelementptr inbounds i32, ptr %17, i64 256
  store ptr %18, ptr %8, align 8, !tbaa !31
  %19 = load ptr, ptr %5, align 8, !tbaa !29
  %20 = call i32 @WPACKET_allocate_bytes(ptr noundef %19, i64 noundef 320, ptr noundef %6)
  %21 = icmp ne i32 %20, 0
  br i1 %21, label %23, label %22

22:                                               ; preds = %2
  store i32 0, ptr %3, align 4
  store i32 1, ptr %9, align 4
  br label %75

23:                                               ; preds = %2
  br label %24

24:                                               ; preds = %70, %23
  call void @llvm.lifetime.start.p0(i64 4, ptr %10) #7
  %25 = load ptr, ptr %7, align 8, !tbaa !31
  %26 = getelementptr inbounds nuw i32, ptr %25, i32 1
  store ptr %26, ptr %7, align 8, !tbaa !31
  %27 = load i32, ptr %25, align 4, !tbaa !8
  store i32 %27, ptr %10, align 4, !tbaa !8
  call void @llvm.lifetime.start.p0(i64 4, ptr %11) #7
  %28 = load ptr, ptr %7, align 8, !tbaa !31
  %29 = getelementptr inbounds nuw i32, ptr %28, i32 1
  store ptr %29, ptr %7, align 8, !tbaa !31
  %30 = load i32, ptr %28, align 4, !tbaa !8
  store i32 %30, ptr %11, align 4, !tbaa !8
  call void @llvm.lifetime.start.p0(i64 4, ptr %12) #7
  %31 = load ptr, ptr %7, align 8, !tbaa !31
  %32 = getelementptr inbounds nuw i32, ptr %31, i32 1
  store ptr %32, ptr %7, align 8, !tbaa !31
  %33 = load i32, ptr %31, align 4, !tbaa !8
  store i32 %33, ptr %12, align 4, !tbaa !8
  call void @llvm.lifetime.start.p0(i64 4, ptr %13) #7
  %34 = load ptr, ptr %7, align 8, !tbaa !31
  %35 = getelementptr inbounds nuw i32, ptr %34, i32 1
  store ptr %35, ptr %7, align 8, !tbaa !31
  %36 = load i32, ptr %34, align 4, !tbaa !8
  store i32 %36, ptr %13, align 4, !tbaa !8
  %37 = load i32, ptr %10, align 4, !tbaa !8
  %38 = trunc i32 %37 to i8
  %39 = load ptr, ptr %6, align 8, !tbaa !25
  %40 = getelementptr inbounds nuw i8, ptr %39, i32 1
  store ptr %40, ptr %6, align 8, !tbaa !25
  store i8 %38, ptr %39, align 1, !tbaa !33
  %41 = load i32, ptr %10, align 4, !tbaa !8
  %42 = lshr i32 %41, 8
  %43 = load i32, ptr %11, align 4, !tbaa !8
  %44 = shl i32 %43, 2
  %45 = or i32 %42, %44
  %46 = trunc i32 %45 to i8
  %47 = load ptr, ptr %6, align 8, !tbaa !25
  %48 = getelementptr inbounds nuw i8, ptr %47, i32 1
  store ptr %48, ptr %6, align 8, !tbaa !25
  store i8 %46, ptr %47, align 1, !tbaa !33
  %49 = load i32, ptr %11, align 4, !tbaa !8
  %50 = lshr i32 %49, 6
  %51 = load i32, ptr %12, align 4, !tbaa !8
  %52 = shl i32 %51, 4
  %53 = or i32 %50, %52
  %54 = trunc i32 %53 to i8
  %55 = load ptr, ptr %6, align 8, !tbaa !25
  %56 = getelementptr inbounds nuw i8, ptr %55, i32 1
  store ptr %56, ptr %6, align 8, !tbaa !25
  store i8 %54, ptr %55, align 1, !tbaa !33
  %57 = load i32, ptr %12, align 4, !tbaa !8
  %58 = lshr i32 %57, 4
  %59 = load i32, ptr %13, align 4, !tbaa !8
  %60 = shl i32 %59, 6
  %61 = or i32 %58, %60
  %62 = trunc i32 %61 to i8
  %63 = load ptr, ptr %6, align 8, !tbaa !25
  %64 = getelementptr inbounds nuw i8, ptr %63, i32 1
  store ptr %64, ptr %6, align 8, !tbaa !25
  store i8 %62, ptr %63, align 1, !tbaa !33
  %65 = load i32, ptr %13, align 4, !tbaa !8
  %66 = lshr i32 %65, 2
  %67 = trunc i32 %66 to i8
  %68 = load ptr, ptr %6, align 8, !tbaa !25
  %69 = getelementptr inbounds nuw i8, ptr %68, i32 1
  store ptr %69, ptr %6, align 8, !tbaa !25
  store i8 %67, ptr %68, align 1, !tbaa !33
  call void @llvm.lifetime.end.p0(i64 4, ptr %13) #7
  call void @llvm.lifetime.end.p0(i64 4, ptr %12) #7
  call void @llvm.lifetime.end.p0(i64 4, ptr %11) #7
  call void @llvm.lifetime.end.p0(i64 4, ptr %10) #7
  br label %70

70:                                               ; preds = %24
  %71 = load ptr, ptr %7, align 8, !tbaa !31
  %72 = load ptr, ptr %8, align 8, !tbaa !31
  %73 = icmp ult ptr %71, %72
  br i1 %73, label %24, label %74, !llvm.loop !34

74:                                               ; preds = %70
  store i32 1, ptr %3, align 4
  store i32 1, ptr %9, align 4
  br label %75

75:                                               ; preds = %74, %22
  call void @llvm.lifetime.end.p0(i64 8, ptr %8) #7
  call void @llvm.lifetime.end.p0(i64 8, ptr %7) #7
  call void @llvm.lifetime.end.p0(i64 8, ptr %6) #7
  %76 = load i32, ptr %3, align 4
  ret i32 %76
}

; Function Attrs: nounwind uwtable
define i32 @ossl_ml_dsa_pk_encode(ptr noundef %0) #0 {
  %2 = alloca i32, align 4
  %3 = alloca ptr, align 8
  %4 = alloca i32, align 4
  %5 = alloca i64, align 8
  %6 = alloca i64, align 8
  %7 = alloca ptr, align 8
  %8 = alloca i64, align 8
  %9 = alloca i64, align 8
  %10 = alloca ptr, align 8
  %11 = alloca %struct.wpacket_st, align 8
  %12 = alloca i32, align 4
  store ptr %0, ptr %3, align 8, !tbaa !3
  call void @llvm.lifetime.start.p0(i64 4, ptr %4) #7
  store i32 0, ptr %4, align 4, !tbaa !8
  call void @llvm.lifetime.start.p0(i64 8, ptr %5) #7
  call void @llvm.lifetime.start.p0(i64 8, ptr %6) #7
  store i64 0, ptr %6, align 8, !tbaa !10
  call void @llvm.lifetime.start.p0(i64 8, ptr %7) #7
  %13 = load ptr, ptr %3, align 8, !tbaa !3
  %14 = getelementptr inbounds nuw %struct.ml_dsa_key_st, ptr %13, i32 0, i32 12
  %15 = getelementptr inbounds nuw %struct.vector_st, ptr %14, i32 0, i32 0
  %16 = load ptr, ptr %15, align 8, !tbaa !12
  store ptr %16, ptr %7, align 8, !tbaa !20
  call void @llvm.lifetime.start.p0(i64 8, ptr %8) #7
  %17 = load ptr, ptr %3, align 8, !tbaa !3
  %18 = getelementptr inbounds nuw %struct.ml_dsa_key_st, ptr %17, i32 0, i32 12
  %19 = getelementptr inbounds nuw %struct.vector_st, ptr %18, i32 0, i32 1
  %20 = load i64, ptr %19, align 8, !tbaa !21
  store i64 %20, ptr %8, align 8, !tbaa !10
  call void @llvm.lifetime.start.p0(i64 8, ptr %9) #7
  %21 = load ptr, ptr %3, align 8, !tbaa !3
  %22 = getelementptr inbounds nuw %struct.ml_dsa_key_st, ptr %21, i32 0, i32 1
  %23 = load ptr, ptr %22, align 8, !tbaa !22
  %24 = getelementptr inbounds nuw %struct.ml_dsa_params_st, ptr %23, i32 0, i32 13
  %25 = load i64, ptr %24, align 8, !tbaa !23
  store i64 %25, ptr %9, align 8, !tbaa !10
  call void @llvm.lifetime.start.p0(i64 8, ptr %10) #7
  %26 = load i64, ptr %9, align 8, !tbaa !10
  %27 = call noalias ptr @CRYPTO_malloc(i64 noundef %26, ptr noundef @.str, i32 noundef 627)
  store ptr %27, ptr %10, align 8, !tbaa !25
  call void @llvm.lifetime.start.p0(i64 56, ptr %11) #7
  %28 = load ptr, ptr %10, align 8, !tbaa !25
  %29 = icmp eq ptr %28, null
  br i1 %29, label %30, label %31

30:                                               ; preds = %1
  store i32 0, ptr %2, align 4
  store i32 1, ptr %12, align 4
  br label %82

31:                                               ; preds = %1
  %32 = load ptr, ptr %10, align 8, !tbaa !25
  %33 = load i64, ptr %9, align 8, !tbaa !10
  %34 = call i32 @WPACKET_init_static_len(ptr noundef %11, ptr noundef %32, i64 noundef %33, i64 noundef 0)
  %35 = icmp ne i32 %34, 0
  br i1 %35, label %36, label %42

36:                                               ; preds = %31
  %37 = load ptr, ptr %3, align 8, !tbaa !3
  %38 = getelementptr inbounds nuw %struct.ml_dsa_key_st, ptr %37, i32 0, i32 4
  %39 = getelementptr inbounds [32 x i8], ptr %38, i64 0, i64 0
  %40 = call i32 @WPACKET_memcpy(ptr noundef %11, ptr noundef %39, i64 noundef 32)
  %41 = icmp ne i32 %40, 0
  br i1 %41, label %43, label %42

42:                                               ; preds = %36, %31
  br label %74

43:                                               ; preds = %36
  store i64 0, ptr %5, align 8, !tbaa !10
  br label %44

44:                                               ; preds = %56, %43
  %45 = load i64, ptr %5, align 8, !tbaa !10
  %46 = load i64, ptr %8, align 8, !tbaa !10
  %47 = icmp ult i64 %45, %46
  br i1 %47, label %48, label %59

48:                                               ; preds = %44
  %49 = load ptr, ptr %7, align 8, !tbaa !20
  %50 = load i64, ptr %5, align 8, !tbaa !10
  %51 = getelementptr inbounds nuw %struct.poly_st, ptr %49, i64 %50
  %52 = call i32 @poly_encode_10_bits(ptr noundef %51, ptr noundef %11)
  %53 = icmp ne i32 %52, 0
  br i1 %53, label %55, label %54

54:                                               ; preds = %48
  br label %74

55:                                               ; preds = %48
  br label %56

56:                                               ; preds = %55
  %57 = load i64, ptr %5, align 8, !tbaa !10
  %58 = add i64 %57, 1
  store i64 %58, ptr %5, align 8, !tbaa !10
  br label %44, !llvm.loop !26

59:                                               ; preds = %44
  %60 = call i32 @WPACKET_get_total_written(ptr noundef %11, ptr noundef %6)
  %61 = icmp ne i32 %60, 0
  br i1 %61, label %62, label %66

62:                                               ; preds = %59
  %63 = load i64, ptr %6, align 8, !tbaa !10
  %64 = load i64, ptr %9, align 8, !tbaa !10
  %65 = icmp ne i64 %63, %64
  br i1 %65, label %66, label %67

66:                                               ; preds = %62, %59
  br label %74

67:                                               ; preds = %62
  %68 = load ptr, ptr %3, align 8, !tbaa !3
  %69 = getelementptr inbounds nuw %struct.ml_dsa_key_st, ptr %68, i32 0, i32 7
  %70 = load ptr, ptr %69, align 8, !tbaa !28
  call void @CRYPTO_free(ptr noundef %70, ptr noundef @.str, i32 noundef 642)
  %71 = load ptr, ptr %10, align 8, !tbaa !25
  %72 = load ptr, ptr %3, align 8, !tbaa !3
  %73 = getelementptr inbounds nuw %struct.ml_dsa_key_st, ptr %72, i32 0, i32 7
  store ptr %71, ptr %73, align 8, !tbaa !28
  store i32 1, ptr %4, align 4, !tbaa !8
  br label %74

74:                                               ; preds = %67, %66, %54, %42
  %75 = call i32 @WPACKET_finish(ptr noundef %11)
  %76 = load i32, ptr %4, align 4, !tbaa !8
  %77 = icmp eq i32 %76, 0
  br i1 %77, label %78, label %80

78:                                               ; preds = %74
  %79 = load ptr, ptr %10, align 8, !tbaa !25
  call void @CRYPTO_free(ptr noundef %79, ptr noundef @.str, i32 noundef 648)
  br label %80

80:                                               ; preds = %78, %74
  %81 = load i32, ptr %4, align 4, !tbaa !8
  store i32 %81, ptr %2, align 4
  store i32 1, ptr %12, align 4
  br label %82

82:                                               ; preds = %80, %30
  call void @llvm.lifetime.end.p0(i64 56, ptr %11) #7
  call void @llvm.lifetime.end.p0(i64 8, ptr %10) #7
  call void @llvm.lifetime.end.p0(i64 8, ptr %9) #7
  call void @llvm.lifetime.end.p0(i64 8, ptr %8) #7
  call void @llvm.lifetime.end.p0(i64 8, ptr %7) #7
  call void @llvm.lifetime.end.p0(i64 8, ptr %6) #7
  call void @llvm.lifetime.end.p0(i64 8, ptr %5) #7
  call void @llvm.lifetime.end.p0(i64 4, ptr %4) #7
  %83 = load i32, ptr %2, align 4
  ret i32 %83
}