; Function Attrs: nounwind uwtable
define range(i32 0, 2) i32 @ossl_ml_dsa_pk_encode(ptr noundef %0) local_unnamed_addr #0 {
  %2 = alloca ptr, align 8
  %3 = alloca i64, align 8
  %4 = alloca %struct.wpacket_st, align 8
  call void @llvm.lifetime.start.p0(i64 8, ptr nonnull %3) #9
  store i64 0, ptr %3, align 8, !tbaa !3
  %5 = getelementptr inbounds nuw i8, ptr %0, i64 192
  %6 = load ptr, ptr %5, align 8, !tbaa !7
  %7 = getelementptr inbounds nuw i8, ptr %0, i64 200
  %8 = load i64, ptr %7, align 8, !tbaa !17
  %9 = getelementptr inbounds nuw i8, ptr %0, i64 8
  %10 = load ptr, ptr %9, align 8, !tbaa !18
  %11 = getelementptr inbounds nuw i8, ptr %10, i64 72
  %12 = load i64, ptr %11, align 8, !tbaa !19
  %13 = tail call noalias ptr @CRYPTO_malloc(i64 noundef %12, ptr noundef nonnull @.str, i32 noundef 627) #9
  call void @llvm.lifetime.start.p0(i64 56, ptr nonnull %4) #9
  %14 = icmp eq ptr %13, null
  br i1 %14, label %65, label %15

15:                                               ; preds = %1
  %16 = call i32 @WPACKET_init_static_len(ptr noundef nonnull %4, ptr noundef nonnull %13, i64 noundef %12, i64 noundef 0) #9
  %.not = icmp eq i32 %16, 0
  br i1 %.not, label %63, label %17

17:                                               ; preds = %15
  %18 = getelementptr inbounds nuw i8, ptr %0, i64 32
  %19 = call i32 @WPACKET_memcpy(ptr noundef nonnull %4, ptr noundef nonnull %18, i64 noundef 32) #9
  %.not23 = icmp eq i32 %19, 0
  br i1 %.not23, label %63, label %.preheader

.preheader:                                       ; preds = %17
  %.not32 = icmp eq i64 %8, 0
  br i1 %.not32, label %._crit_edge, label %.lr.ph

.lr.ph:                                           ; preds = %.preheader, %55
  %.02131 = phi i64 [ %56, %55 ], [ 0, %.preheader ]
  %20 = getelementptr inbounds nuw %struct.poly_st, ptr %6, i64 %.02131
  call void @llvm.lifetime.start.p0(i64 8, ptr nonnull %2) #9
  %21 = call i32 @WPACKET_allocate_bytes(ptr noundef nonnull %4, i64 noundef 320, ptr noundef nonnull %2) #9
  %.not.i = icmp eq i32 %21, 0
  br i1 %.not.i, label %poly_encode_10_bits.exit.thread, label %.preheader.i

poly_encode_10_bits.exit.thread:                  ; preds = %.lr.ph
  call void @llvm.lifetime.end.p0(i64 8, ptr nonnull %2) #9
  br label %63

.preheader.i:                                     ; preds = %.lr.ph, %.preheader.i
  %.017.idx.i = phi i64 [ %.017.add.i, %.preheader.i ], [ 0, %.lr.ph ]
  %.017.ptr.i = getelementptr inbounds nuw i8, ptr %20, i64 %.017.idx.i
  %22 = getelementptr inbounds nuw i8, ptr %.017.ptr.i, i64 4
  %23 = load i32, ptr %.017.ptr.i, align 4, !tbaa !21
  %24 = getelementptr inbounds nuw i8, ptr %.017.ptr.i, i64 8
  %25 = load i32, ptr %22, align 4, !tbaa !21
  %26 = getelementptr inbounds nuw i8, ptr %.017.ptr.i, i64 12
  %27 = load i32, ptr %24, align 4, !tbaa !21
  %.017.add.i = add nuw nsw i64 %.017.idx.i, 16
  %28 = load i32, ptr %26, align 4, !tbaa !21
  %29 = trunc i32 %23 to i8
  %30 = load ptr, ptr %2, align 8, !tbaa !22
  %31 = getelementptr inbounds nuw i8, ptr %30, i64 1
  store ptr %31, ptr %2, align 8, !tbaa !22
  store i8 %29, ptr %30, align 1, !tbaa !23
  %32 = lshr i32 %23, 8
  %33 = shl i32 %25, 2
  %34 = or i32 %33, %32
  %35 = trunc i32 %34 to i8
  %36 = load ptr, ptr %2, align 8, !tbaa !22
  %37 = getelementptr inbounds nuw i8, ptr %36, i64 1
  store ptr %37, ptr %2, align 8, !tbaa !22
  store i8 %35, ptr %36, align 1, !tbaa !23
  %38 = lshr i32 %25, 6
  %39 = shl i32 %27, 4
  %40 = or i32 %39, %38
  %41 = trunc i32 %40 to i8
  %42 = load ptr, ptr %2, align 8, !tbaa !22
  %43 = getelementptr inbounds nuw i8, ptr %42, i64 1
  store ptr %43, ptr %2, align 8, !tbaa !22
  store i8 %41, ptr %42, align 1, !tbaa !23
  %44 = lshr i32 %27, 4
  %45 = shl i32 %28, 6
  %46 = or i32 %45, %44
  %47 = trunc i32 %46 to i8
  %48 = load ptr, ptr %2, align 8, !tbaa !22
  %49 = getelementptr inbounds nuw i8, ptr %48, i64 1
  store ptr %49, ptr %2, align 8, !tbaa !22
  store i8 %47, ptr %48, align 1, !tbaa !23
  %50 = lshr i32 %28, 2
  %51 = trunc i32 %50 to i8
  %52 = load ptr, ptr %2, align 8, !tbaa !22
  %53 = getelementptr inbounds nuw i8, ptr %52, i64 1
  store ptr %53, ptr %2, align 8, !tbaa !22
  store i8 %51, ptr %52, align 1, !tbaa !23
  %54 = icmp samesign ult i64 %.017.idx.i, 1008
  br i1 %54, label %.preheader.i, label %55, !llvm.loop !24

55:                                               ; preds = %.preheader.i
  call void @llvm.lifetime.end.p0(i64 8, ptr nonnull %2) #9
  %56 = add nuw i64 %.02131, 1
  %exitcond.not = icmp eq i64 %56, %8
  br i1 %exitcond.not, label %._crit_edge, label %.lr.ph, !llvm.loop !26

._crit_edge:                                      ; preds = %55, %.preheader
  %57 = call i32 @WPACKET_get_total_written(ptr noundef nonnull %4, ptr noundef nonnull %3) #9
  %.not24 = icmp ne i32 %57, 0
  %58 = load i64, ptr %3, align 8
  %.not25 = icmp eq i64 %58, %12
  %or.cond = select i1 %.not24, i1 %.not25, i1 false
  br i1 %or.cond, label %59, label %63

59:                                               ; preds = %._crit_edge
  %60 = getelementptr inbounds nuw i8, ptr %0, i64 160
  %61 = load ptr, ptr %60, align 8, !tbaa !27
  call void @CRYPTO_free(ptr noundef %61, ptr noundef nonnull @.str, i32 noundef 642) #9
  store ptr %13, ptr %60, align 8, !tbaa !27
  %62 = call i32 @WPACKET_finish(ptr noundef nonnull %4) #9
  br label %65

63:                                               ; preds = %._crit_edge, %17, %15, %poly_encode_10_bits.exit.thread
  %64 = call i32 @WPACKET_finish(ptr noundef nonnull %4) #9
  call void @CRYPTO_free(ptr noundef nonnull %13, ptr noundef nonnull @.str, i32 noundef 648) #9
  br label %65

65:                                               ; preds = %59, %63, %1
  %.0 = phi i32 [ 0, %1 ], [ 0, %63 ], [ 1, %59 ]
  call void @llvm.lifetime.end.p0(i64 56, ptr nonnull %4) #9
  call void @llvm.lifetime.end.p0(i64 8, ptr nonnull %3) #9
  ret i32 %.0
}